(dp0
V0010000000000000000000000000000000000000000000000000000000000000100001000000100000
p1
I0
sV0100000000000000000000000000000000000000000000000000000000000000010000100000100000
p2
I1
sV1000000000000000000000000000000000000000000000000000000000000000001000001001000000
p3
I2
sV0010000000000000000000000000000000000000000000000000000000000000100000100001000000
p4
I3
sV1000000000000000000000000000000000000000000000000000000000000000010000100000010000
p5
I4
sV1000000000000000000000000000000000000000000000000000000000000000001000010000100000
p6
I5
sV1000000000000000000000000000000000000000000000000000000000000000100001000000001000
p7
I6
sV1000000000000000000000000000000000000000000000000000000000000000001000001001000001
p8
I7
sV1000000000000000000000000000000000000000000000000000000000000000010000010000100001
p9
I8
sV0100000000000000000000000000000000000000000000000000000000000000010000010001000001
p10
I9
sV0000100000000000000000000000000000000000000000000000000000000000100001000001000000
p11
I10
sV0010000000000000000000000000000000000000000000000000000000000000010000100001000000
p12
I11
sV0100000000000000000000000000000000000000000000000000000000000000001000001001000001
p13
I12
sV1000000000000000000000000000000000000000000000000000000000000000010000010000100000
p14
I13
sV0000000100000000000000000000000000000000000000000000000000000000100001000001000000
p15
I14
sV0100000000000000000000000000000000000000000000000000000000000000100001000000010000
p16
I15
sV0100000000000000000000000000000000000000000000000000000000000000001000010001000000
p17
I16
sV1000000000000000000000000000000000000000000000000000000000000000000100001001000000
p18
I17
sV0100000000000000000000000000000000000000000000000000000000000000001000010001000001
p19
I18
sV0001000000000000000000000000000000000000000000000000000000000000010000100001000001
p20
I19
sV0001000000000000000000000000000000000000000000000000000000000000000100000011000000
p21
I20
sV0010000000000000000000000000000000000000000000000000000000000000010000100001000001
p22
I21
sV0001000000000000000000000000000000000000000000000000000000000000010000100001000000
p23
I22
sV0100000000000000000000000000000000000000000000000000000000000000010000010001000000
p24
I23
sV0000000000000000100000000000000000000000000000000000000000000000001000010001000000
p25
I24
sV0000000010000000000000000000000000000000000000000000000000000000100001000001000000
p26
I25
sV0000000000000000100000000000000000000000000000000000000000000000000100001001000000
p27
I26
sV1000000000000000000000000000000000000000000000000000000000000000010000001001000000
p28
I27
sV0100000000000000000000000000000000000000000000000000000000000000100000010001000000
p29
I28
sV0100000000000000000000000000000000000000000000000000000000000000100000100000100000
p30
I29
sV1000000000000000000000000000000000000000000000000000000000000000100000010000100000
p31
I30
sV0010000000000000000000000000000000000000000000000000000000000000100001000001000000
p32
I31
sV0100000000000000000000000000000000000000000000000000000000000000010000100000010000
p33
I32
sV0000001000000000000000000000000000000000000000000000000000000000000100000101000000
p34
I33
sV0100000000000000000000000000000000000000000000000000000000000000010000001001000000
p35
I34
sV0100000000000000000000000000000000000000000000000000000000000000100000100001000000
p36
I35
sV0001000000000000000000000000000000000000000000000000000000000000100001000000100000
p37
I36
sV0100000000000000000000000000000000000000000000000000000000000000001000010000100000
p38
I37
sV0100000000000000000000000000000000000000000000000000000000000000001000001001000000
p39
I38
sV0001000000000000000000000000000000000000000000000000000000000000100000100001000000
p40
I39
sV1000000000000000000000000000000000000000000000000000000000000000100000100000010000
p41
I40
sV0000000000000001000000000000000000000000000000000000000000000000100001000001000000
p42
I41
sV0000000000000000000000000010000000000000000000000000000000000000010000100001000001
p43
I42
sV0000000000001000000000000000000000000000000000000000000000000000000100001001000000
p44
I43
sV0000000000000000100000000000000000000000000000000000000000000000010000100000100000
p45
I44
sV0100000000000000000000000000000000000000000000000000000000000000000100001001000000
p46
I45
sV0000001000000000000000000000000000000000000000000000000000000000000100001001000000
p47
I46
sV0000000000000000000000000010000000000000000000000000000000000000100001000000100000
p48
I47
sV0100000000000000000000000000000000000000000000000000000000000000100001000000001000
p49
I48
sV0100000000000000000000000000000000000000000000000000000000000000100000100000010000
p50
I49
sV0100000000000000000000000000000000000000000000000000000000000000010000010000100001
p51
I50
sV0000010000000000000000000000000000000000000000000000000000000000000100001001000000
p52
I51
sV0001000000000000000000000000000000000000000000000000000000000000000100001001000000
p53
I52
sV0001000000000000000000000000000000000000000000000000000000000000010000001001000000
p54
I53
sV0100000000000000000000000000000000000000000000000000000000000000010000100001000000
p55
I54
sV0001000000000000000000000000000000000000000000000000000000000000001000001001000000
p56
I55
sV0000000000000000000000000000000000000000000010000000000000000000000010000011000000
p57
I56
sV0000001000000000000000000000000000000000000000000000000000000000001000000101000000
p58
I57
sV0000000000000000000001000000000000000000000000000000000000000000000100000101000000
p59
I58
sV0000000000000000100000000000000000000000000000000000000000000000100001000000010000
p60
I59
sV0000000000000000000000000000000000000000000000000000000010000000000010000011000000
p61
I60
sV0010000000000000000000000000000000000000000000000000000000000000100000010001000000
p62
I61
sV0001000000000000000000000000000000000000000000000000000000000000001000010001000000
p63
I62
sV0000000000000100000000000000000000000000000000000000000000000000000100001001000000
p64
I63
sV0000000000001000000000000000000000000000000000000000000000000000000010000011000000
p65
I64
sV0001000000000000000000000000000000000000000000000000000000000000100000001001000000
p66
I65
s.