(dp0
VA
p1
I0
sVC
p2
I1
sVD
p3
I2
sVE
p4
I3
sVF
p5
I4
sVG
p6
I5
sVH
p7
I6
sVI
p8
I7
sVK
p9
I8
sVL
p10
I9
sVM
p11
I10
sVN
p12
I11
sVP
p13
I12
sVQ
p14
I13
sVR
p15
I14
sVS
p16
I15
sVT
p17
I16
sVV
p18
I17
sVW
p19
I18
sVY
p20
I19
sVX
p21
I20
s.